target datalayout = "e-m:e-p270:32:32-p271:32:32-p272:64:64-i64:64-i128:128-f80:128-n8:16:32:64-S128"
target triple = "x86_64-pc-linux-gnu"

%struct.dirent = type { i64, i64, i16, i8, [256 x i8] }

@.str.134 = private unnamed_addr constant [2 x i8] c".\00", align 1
@.str.167 = private unnamed_addr constant [5 x i8] c".cbc\00", align 1
@.str.175 = private unnamed_addr constant [5 x i8] c".cvd\00", align 1
@.str.176 = private unnamed_addr constant [5 x i8] c".cld\00", align 1
@.str.268 = private unnamed_addr constant [3 x i8] c"..\00", align 1
@.str.269 = private unnamed_addr constant [6 x i8] c"%s/%s\00", align 1
@.str.304 = private unnamed_addr constant [34 x i8] c"listdir: Can't open directory %s\0A\00", align 1
@.str.305 = private unnamed_addr constant [4 x i8] c".db\00", align 1
@.str.306 = private unnamed_addr constant [5 x i8] c".hdb\00", align 1
@.str.307 = private unnamed_addr constant [5 x i8] c".hdu\00", align 1
@.str.308 = private unnamed_addr constant [5 x i8] c".hsb\00", align 1
@.str.309 = private unnamed_addr constant [5 x i8] c".hsu\00", align 1
@.str.310 = private unnamed_addr constant [5 x i8] c".mdb\00", align 1
@.str.311 = private unnamed_addr constant [5 x i8] c".mdu\00", align 1
@.str.312 = private unnamed_addr constant [5 x i8] c".msb\00", align 1
@.str.313 = private unnamed_addr constant [5 x i8] c".msu\00", align 1
@.str.314 = private unnamed_addr constant [5 x i8] c".ndb\00", align 1
@.str.315 = private unnamed_addr constant [5 x i8] c".ndu\00", align 1
@.str.316 = private unnamed_addr constant [5 x i8] c".ldb\00", align 1
@.str.317 = private unnamed_addr constant [5 x i8] c".ldu\00", align 1
@.str.318 = private unnamed_addr constant [5 x i8] c".sdb\00", align 1
@.str.319 = private unnamed_addr constant [5 x i8] c".zmd\00", align 1
@.str.320 = private unnamed_addr constant [5 x i8] c".rmd\00", align 1
@.str.321 = private unnamed_addr constant [5 x i8] c".cdb\00", align 1
@.str.322 = private unnamed_addr constant [5 x i8] c".crb\00", align 1
@.str.323 = private unnamed_addr constant [5 x i8] c".imp\00", align 1
@.str.324 = private unnamed_addr constant [43 x i8] c"listdir: Can't allocate memory for dbfile\0A\00", align 1
@.str.325 = private unnamed_addr constant [35 x i8] c"listdb: Error listing database %s\0A\00", align 1

; Function Attrs: nounwind uwtable
define internal i32 @listdir(ptr noundef %0, ptr noundef %1, ptr noundef %2) #0 {
  %4 = alloca i32, align 4
  %5 = alloca ptr, align 8
  %6 = alloca ptr, align 8
  %7 = alloca ptr, align 8
  %8 = alloca ptr, align 8
  %9 = alloca ptr, align 8
  %10 = alloca ptr, align 8
  store ptr %0, ptr %5, align 8
  store ptr %1, ptr %6, align 8
  store ptr %2, ptr %7, align 8
  %11 = load ptr, ptr %6, align 8
  %12 = call ptr @opendir(ptr noundef %11)
  store ptr %12, ptr %8, align 8
  %13 = icmp eq ptr %12, null
  br i1 %13, label %14, label %16

14:                                               ; preds = %3
  %15 = load ptr, ptr %6, align 8
  call void (i32, ptr, ...) @mprintf(i32 noundef 5, ptr noundef @.str.304, ptr noundef %15)
  store i32 -1, ptr %4, align 4
  br label %209

16:                                               ; preds = %3
  br label %17

17:                                               ; preds = %205, %16
  %18 = load ptr, ptr %8, align 8
  %19 = call ptr @readdir(ptr noundef %18)
  store ptr %19, ptr %9, align 8
  %20 = icmp ne ptr %19, null
  br i1 %20, label %21, label %206

21:                                               ; preds = %17
  %22 = load ptr, ptr %9, align 8
  %23 = getelementptr inbounds %struct.dirent, ptr %22, i32 0, i32 0
  %24 = load i64, ptr %23, align 8
  %25 = icmp ne i64 %24, 0
  br i1 %25, label %26, label %205

26:                                               ; preds = %21
  %27 = load ptr, ptr %9, align 8
  %28 = getelementptr inbounds %struct.dirent, ptr %27, i32 0, i32 4
  %29 = getelementptr inbounds [256 x i8], ptr %28, i64 0, i64 0
  %30 = call i32 @strcmp(ptr noundef %29, ptr noundef @.str.134) #14
  %31 = icmp ne i32 %30, 0
  br i1 %31, label %32, label %204

32:                                               ; preds = %26
  %33 = load ptr, ptr %9, align 8
  %34 = getelementptr inbounds %struct.dirent, ptr %33, i32 0, i32 4
  %35 = getelementptr inbounds [256 x i8], ptr %34, i64 0, i64 0
  %36 = call i32 @strcmp(ptr noundef %35, ptr noundef @.str.268) #14
  %37 = icmp ne i32 %36, 0
  br i1 %37, label %38, label %204

38:                                               ; preds = %32
  %39 = load ptr, ptr %9, align 8
  %40 = getelementptr inbounds %struct.dirent, ptr %39, i32 0, i32 4
  %41 = getelementptr inbounds [256 x i8], ptr %40, i64 0, i64 0
  %42 = call i32 @cli_strbcasestr(ptr noundef %41, ptr noundef @.str.305)
  %43 = icmp ne i32 %42, 0
  br i1 %43, label %170, label %44

44:                                               ; preds = %38
  %45 = load ptr, ptr %9, align 8
  %46 = getelementptr inbounds %struct.dirent, ptr %45, i32 0, i32 4
  %47 = getelementptr inbounds [256 x i8], ptr %46, i64 0, i64 0
  %48 = call i32 @cli_strbcasestr(ptr noundef %47, ptr noundef @.str.306)
  %49 = icmp ne i32 %48, 0
  br i1 %49, label %170, label %50

50:                                               ; preds = %44
  %51 = load ptr, ptr %9, align 8
  %52 = getelementptr inbounds %struct.dirent, ptr %51, i32 0, i32 4
  %53 = getelementptr inbounds [256 x i8], ptr %52, i64 0, i64 0
  %54 = call i32 @cli_strbcasestr(ptr noundef %53, ptr noundef @.str.307)
  %55 = icmp ne i32 %54, 0
  br i1 %55, label %170, label %56

56:                                               ; preds = %50
  %57 = load ptr, ptr %9, align 8
  %58 = getelementptr inbounds %struct.dirent, ptr %57, i32 0, i32 4
  %59 = getelementptr inbounds [256 x i8], ptr %58, i64 0, i64 0
  %60 = call i32 @cli_strbcasestr(ptr noundef %59, ptr noundef @.str.308)
  %61 = icmp ne i32 %60, 0
  br i1 %61, label %170, label %62

62:                                               ; preds = %56
  %63 = load ptr, ptr %9, align 8
  %64 = getelementptr inbounds %struct.dirent, ptr %63, i32 0, i32 4
  %65 = getelementptr inbounds [256 x i8], ptr %64, i64 0, i64 0
  %66 = call i32 @cli_strbcasestr(ptr noundef %65, ptr noundef @.str.309)
  %67 = icmp ne i32 %66, 0
  br i1 %67, label %170, label %68

68:                                               ; preds = %62
  %69 = load ptr, ptr %9, align 8
  %70 = getelementptr inbounds %struct.dirent, ptr %69, i32 0, i32 4
  %71 = getelementptr inbounds [256 x i8], ptr %70, i64 0, i64 0
  %72 = call i32 @cli_strbcasestr(ptr noundef %71, ptr noundef @.str.310)
  %73 = icmp ne i32 %72, 0
  br i1 %73, label %170, label %74

74:                                               ; preds = %68
  %75 = load ptr, ptr %9, align 8
  %76 = getelementptr inbounds %struct.dirent, ptr %75, i32 0, i32 4
  %77 = getelementptr inbounds [256 x i8], ptr %76, i64 0, i64 0
  %78 = call i32 @cli_strbcasestr(ptr noundef %77, ptr noundef @.str.311)
  %79 = icmp ne i32 %78, 0
  br i1 %79, label %170, label %80

80:                                               ; preds = %74
  %81 = load ptr, ptr %9, align 8
  %82 = getelementptr inbounds %struct.dirent, ptr %81, i32 0, i32 4
  %83 = getelementptr inbounds [256 x i8], ptr %82, i64 0, i64 0
  %84 = call i32 @cli_strbcasestr(ptr noundef %83, ptr noundef @.str.312)
  %85 = icmp ne i32 %84, 0
  br i1 %85, label %170, label %86

86:                                               ; preds = %80
  %87 = load ptr, ptr %9, align 8
  %88 = getelementptr inbounds %struct.dirent, ptr %87, i32 0, i32 4
  %89 = getelementptr inbounds [256 x i8], ptr %88, i64 0, i64 0
  %90 = call i32 @cli_strbcasestr(ptr noundef %89, ptr noundef @.str.313)
  %91 = icmp ne i32 %90, 0
  br i1 %91, label %170, label %92

92:                                               ; preds = %86
  %93 = load ptr, ptr %9, align 8
  %94 = getelementptr inbounds %struct.dirent, ptr %93, i32 0, i32 4
  %95 = getelementptr inbounds [256 x i8], ptr %94, i64 0, i64 0
  %96 = call i32 @cli_strbcasestr(ptr noundef %95, ptr noundef @.str.314)
  %97 = icmp ne i32 %96, 0
  br i1 %97, label %170, label %98

98:                                               ; preds = %92
  %99 = load ptr, ptr %9, align 8
  %100 = getelementptr inbounds %struct.dirent, ptr %99, i32 0, i32 4
  %101 = getelementptr inbounds [256 x i8], ptr %100, i64 0, i64 0
  %102 = call i32 @cli_strbcasestr(ptr noundef %101, ptr noundef @.str.315)
  %103 = icmp ne i32 %102, 0
  br i1 %103, label %170, label %104

104:                                              ; preds = %98
  %105 = load ptr, ptr %9, align 8
  %106 = getelementptr inbounds %struct.dirent, ptr %105, i32 0, i32 4
  %107 = getelementptr inbounds [256 x i8], ptr %106, i64 0, i64 0
  %108 = call i32 @cli_strbcasestr(ptr noundef %107, ptr noundef @.str.316)
  %109 = icmp ne i32 %108, 0
  br i1 %109, label %170, label %110

110:                                              ; preds = %104
  %111 = load ptr, ptr %9, align 8
  %112 = getelementptr inbounds %struct.dirent, ptr %111, i32 0, i32 4
  %113 = getelementptr inbounds [256 x i8], ptr %112, i64 0, i64 0
  %114 = call i32 @cli_strbcasestr(ptr noundef %113, ptr noundef @.str.317)
  %115 = icmp ne i32 %114, 0
  br i1 %115, label %170, label %116

116:                                              ; preds = %110
  %117 = load ptr, ptr %9, align 8
  %118 = getelementptr inbounds %struct.dirent, ptr %117, i32 0, i32 4
  %119 = getelementptr inbounds [256 x i8], ptr %118, i64 0, i64 0
  %120 = call i32 @cli_strbcasestr(ptr noundef %119, ptr noundef @.str.318)
  %121 = icmp ne i32 %120, 0
  br i1 %121, label %170, label %122

122:                                              ; preds = %116
  %123 = load ptr, ptr %9, align 8
  %124 = getelementptr inbounds %struct.dirent, ptr %123, i32 0, i32 4
  %125 = getelementptr inbounds [256 x i8], ptr %124, i64 0, i64 0
  %126 = call i32 @cli_strbcasestr(ptr noundef %125, ptr noundef @.str.319)
  %127 = icmp ne i32 %126, 0
  br i1 %127, label %170, label %128

128:                                              ; preds = %122
  %129 = load ptr, ptr %9, align 8
  %130 = getelementptr inbounds %struct.dirent, ptr %129, i32 0, i32 4
  %131 = getelementptr inbounds [256 x i8], ptr %130, i64 0, i64 0
  %132 = call i32 @cli_strbcasestr(ptr noundef %131, ptr noundef @.str.320)
  %133 = icmp ne i32 %132, 0
  br i1 %133, label %170, label %134

134:                                              ; preds = %128
  %135 = load ptr, ptr %9, align 8
  %136 = getelementptr inbounds %struct.dirent, ptr %135, i32 0, i32 4
  %137 = getelementptr inbounds [256 x i8], ptr %136, i64 0, i64 0
  %138 = call i32 @cli_strbcasestr(ptr noundef %137, ptr noundef @.str.321)
  %139 = icmp ne i32 %138, 0
  br i1 %139, label %170, label %140

140:                                              ; preds = %134
  %141 = load ptr, ptr %9, align 8
  %142 = getelementptr inbounds %struct.dirent, ptr %141, i32 0, i32 4
  %143 = getelementptr inbounds [256 x i8], ptr %142, i64 0, i64 0
  %144 = call i32 @cli_strbcasestr(ptr noundef %143, ptr noundef @.str.167)
  %145 = icmp ne i32 %144, 0
  br i1 %145, label %170, label %146

146:                                              ; preds = %140
  %147 = load ptr, ptr %9, align 8
  %148 = getelementptr inbounds %struct.dirent, ptr %147, i32 0, i32 4
  %149 = getelementptr inbounds [256 x i8], ptr %148, i64 0, i64 0
  %150 = call i32 @cli_strbcasestr(ptr noundef %149, ptr noundef @.str.176)
  %151 = icmp ne i32 %150, 0
  br i1 %151, label %170, label %152

152:                                              ; preds = %146
  %153 = load ptr, ptr %9, align 8
  %154 = getelementptr inbounds %struct.dirent, ptr %153, i32 0, i32 4
  %155 = getelementptr inbounds [256 x i8], ptr %154, i64 0, i64 0
  %156 = call i32 @cli_strbcasestr(ptr noundef %155, ptr noundef @.str.175)
  %157 = icmp ne i32 %156, 0
  br i1 %157, label %170, label %158

158:                                              ; preds = %152
  %159 = load ptr, ptr %9, align 8
  %160 = getelementptr inbounds %struct.dirent, ptr %159, i32 0, i32 4
  %161 = getelementptr inbounds [256 x i8], ptr %160, i64 0, i64 0
  %162 = call i32 @cli_strbcasestr(ptr noundef %161, ptr noundef @.str.322)
  %163 = icmp ne i32 %162, 0
  br i1 %163, label %170, label %164

164:                                              ; preds = %158
  %165 = load ptr, ptr %9, align 8
  %166 = getelementptr inbounds %struct.dirent, ptr %165, i32 0, i32 4
  %167 = getelementptr inbounds [256 x i8], ptr %166, i64 0, i64 0
  %168 = call i32 @cli_strbcasestr(ptr noundef %167, ptr noundef @.str.323)
  %169 = icmp ne i32 %168, 0
  br i1 %169, label %170, label %204

170:                                              ; preds = %164, %158, %152, %146, %140, %134, %128, %122, %116, %110, %104, %98, %92, %86, %80, %74, %68, %62, %56, %50, %44, %38
  %171 = load ptr, ptr %9, align 8
  %172 = getelementptr inbounds %struct.dirent, ptr %171, i32 0, i32 4
  %173 = getelementptr inbounds [256 x i8], ptr %172, i64 0, i64 0
  %174 = call i64 @strlen(ptr noundef %173) #14
  %175 = load ptr, ptr %6, align 8
  %176 = call i64 @strlen(ptr noundef %175) #14
  %177 = add i64 %174, %176
  %178 = add i64 %177, 2
  %179 = call noalias ptr @malloc(i64 noundef %178) #13
  store ptr %179, ptr %10, align 8
  %180 = load ptr, ptr %10, align 8
  %181 = icmp ne ptr %180, null
  br i1 %181, label %185, label %182

182:                                              ; preds = %170
  call void (i32, ptr, ...) @mprintf(i32 noundef 5, ptr noundef @.str.324)
  %183 = load ptr, ptr %8, align 8
  %184 = call i32 @closedir(ptr noundef %183)
  store i32 -1, ptr %4, align 4
  br label %209

185:                                              ; preds = %170
  %186 = load ptr, ptr %10, align 8
  %187 = load ptr, ptr %6, align 8
  %188 = load ptr, ptr %9, align 8
  %189 = getelementptr inbounds %struct.dirent, ptr %188, i32 0, i32 4
  %190 = getelementptr inbounds [256 x i8], ptr %189, i64 0, i64 0
  %191 = call i32 (ptr, ptr, ...) @sprintf(ptr noundef %186, ptr noundef @.str.269, ptr noundef %187, ptr noundef %190) #11
  %192 = load ptr, ptr %5, align 8
  %193 = load ptr, ptr %10, align 8
  %194 = load ptr, ptr %7, align 8
  %195 = call i32 @listdb(ptr noundef %192, ptr noundef %193, ptr noundef %194)
  %196 = icmp eq i32 %195, -1
  br i1 %196, label %197, label %202

197:                                              ; preds = %185
  %198 = load ptr, ptr %10, align 8
  call void (i32, ptr, ...) @mprintf(i32 noundef 5, ptr noundef @.str.325, ptr noundef %198)
  %199 = load ptr, ptr %10, align 8
  call void @free(ptr noundef %199) #11
  %200 = load ptr, ptr %8, align 8
  %201 = call i32 @closedir(ptr noundef %200)
  store i32 -1, ptr %4, align 4
  br label %209

202:                                              ; preds = %185
  %203 = load ptr, ptr %10, align 8
  call void @free(ptr noundef %203) #11
  br label %204

204:                                              ; preds = %202, %164, %32, %26
  br label %205

205:                                              ; preds = %204, %21
  br label %17

206:                                              ; preds = %17
  %207 = load ptr, ptr %8, align 8
  %208 = call i32 @closedir(ptr noundef %207)
  store i32 0, ptr %4, align 4
  br label %209

209:                                              ; preds = %206, %197, %182, %14
  %210 = load i32, ptr %4, align 4
  ret i32 %210
}