; Function Attrs: nounwind uwtable
define internal fastcc noundef i32 @listdir(ptr noundef %0, ptr noundef %1, ptr noundef %2) unnamed_addr #0 {
  %4 = tail call ptr @opendir(ptr noundef %1)
  %5 = icmp eq ptr %4, null
  br i1 %5, label %7, label %.preheader

.preheader:                                       ; preds = %3
  %6 = tail call ptr @readdir(ptr noundef nonnull %4) #25
  %.not72 = icmp eq ptr %6, null
  br i1 %.not72, label %._crit_edge, label %.lr.ph

7:                                                ; preds = %3
  tail call void (i32, ptr, ...) @mprintf(i32 noundef 5, ptr noundef nonnull @.str.304, ptr noundef %1) #25
  br label %77

.lr.ph:                                           ; preds = %.preheader, %74
  %8 = phi ptr [ %75, %74 ], [ %6, %.preheader ]
  %9 = load i64, ptr %8, align 8
  %.not45 = icmp eq i64 %9, 0
  br i1 %.not45, label %74, label %10

10:                                               ; preds = %.lr.ph
  %11 = getelementptr inbounds i8, ptr %8, i64 19
  %12 = tail call i32 @strcmp(ptr noundef nonnull dereferenceable(1) %11, ptr noundef nonnull dereferenceable(2) @.str.134) #31
  %.not46 = icmp eq i32 %12, 0
  br i1 %.not46, label %74, label %13

13:                                               ; preds = %10
  %14 = tail call i32 @strcmp(ptr noundef nonnull dereferenceable(1) %11, ptr noundef nonnull dereferenceable(3) @.str.268) #31
  %.not47 = icmp eq i32 %14, 0
  br i1 %.not47, label %74, label %15

15:                                               ; preds = %13
  %16 = tail call i32 @cli_strbcasestr(ptr noundef nonnull %11, ptr noundef nonnull @.str.305) #25
  %.not48 = icmp eq i32 %16, 0
  br i1 %.not48, label %17, label %59

17:                                               ; preds = %15
  %18 = tail call i32 @cli_strbcasestr(ptr noundef nonnull %11, ptr noundef nonnull @.str.306) #25
  %.not49 = icmp eq i32 %18, 0
  br i1 %.not49, label %19, label %59

19:                                               ; preds = %17
  %20 = tail call i32 @cli_strbcasestr(ptr noundef nonnull %11, ptr noundef nonnull @.str.307) #25
  %.not50 = icmp eq i32 %20, 0
  br i1 %.not50, label %21, label %59

21:                                               ; preds = %19
  %22 = tail call i32 @cli_strbcasestr(ptr noundef nonnull %11, ptr noundef nonnull @.str.308) #25
  %.not51 = icmp eq i32 %22, 0
  br i1 %.not51, label %23, label %59

23:                                               ; preds = %21
  %24 = tail call i32 @cli_strbcasestr(ptr noundef nonnull %11, ptr noundef nonnull @.str.309) #25
  %.not52 = icmp eq i32 %24, 0
  br i1 %.not52, label %25, label %59

25:                                               ; preds = %23
  %26 = tail call i32 @cli_strbcasestr(ptr noundef nonnull %11, ptr noundef nonnull @.str.310) #25
  %.not53 = icmp eq i32 %26, 0
  br i1 %.not53, label %27, label %59

27:                                               ; preds = %25
  %28 = tail call i32 @cli_strbcasestr(ptr noundef nonnull %11, ptr noundef nonnull @.str.311) #25
  %.not54 = icmp eq i32 %28, 0
  br i1 %.not54, label %29, label %59

29:                                               ; preds = %27
  %30 = tail call i32 @cli_strbcasestr(ptr noundef nonnull %11, ptr noundef nonnull @.str.312) #25
  %.not55 = icmp eq i32 %30, 0
  br i1 %.not55, label %31, label %59

31:                                               ; preds = %29
  %32 = tail call i32 @cli_strbcasestr(ptr noundef nonnull %11, ptr noundef nonnull @.str.313) #25
  %.not56 = icmp eq i32 %32, 0
  br i1 %.not56, label %33, label %59

33:                                               ; preds = %31
  %34 = tail call i32 @cli_strbcasestr(ptr noundef nonnull %11, ptr noundef nonnull @.str.314) #25
  %.not57 = icmp eq i32 %34, 0
  br i1 %.not57, label %35, label %59

35:                                               ; preds = %33
  %36 = tail call i32 @cli_strbcasestr(ptr noundef nonnull %11, ptr noundef nonnull @.str.315) #25
  %.not58 = icmp eq i32 %36, 0
  br i1 %.not58, label %37, label %59

37:                                               ; preds = %35
  %38 = tail call i32 @cli_strbcasestr(ptr noundef nonnull %11, ptr noundef nonnull @.str.316) #25
  %.not59 = icmp eq i32 %38, 0
  br i1 %.not59, label %39, label %59

39:                                               ; preds = %37
  %40 = tail call i32 @cli_strbcasestr(ptr noundef nonnull %11, ptr noundef nonnull @.str.317) #25
  %.not60 = icmp eq i32 %40, 0
  br i1 %.not60, label %41, label %59

41:                                               ; preds = %39
  %42 = tail call i32 @cli_strbcasestr(ptr noundef nonnull %11, ptr noundef nonnull @.str.318) #25
  %.not61 = icmp eq i32 %42, 0
  br i1 %.not61, label %43, label %59

43:                                               ; preds = %41
  %44 = tail call i32 @cli_strbcasestr(ptr noundef nonnull %11, ptr noundef nonnull @.str.319) #25
  %.not62 = icmp eq i32 %44, 0
  br i1 %.not62, label %45, label %59

45:                                               ; preds = %43
  %46 = tail call i32 @cli_strbcasestr(ptr noundef nonnull %11, ptr noundef nonnull @.str.320) #25
  %.not63 = icmp eq i32 %46, 0
  br i1 %.not63, label %47, label %59

47:                                               ; preds = %45
  %48 = tail call i32 @cli_strbcasestr(ptr noundef nonnull %11, ptr noundef nonnull @.str.321) #25
  %.not64 = icmp eq i32 %48, 0
  br i1 %.not64, label %49, label %59

49:                                               ; preds = %47
  %50 = tail call i32 @cli_strbcasestr(ptr noundef nonnull %11, ptr noundef nonnull @.str.167) #25
  %.not65 = icmp eq i32 %50, 0
  br i1 %.not65, label %51, label %59

51:                                               ; preds = %49
  %52 = tail call i32 @cli_strbcasestr(ptr noundef nonnull %11, ptr noundef nonnull @.str.176) #25
  %.not66 = icmp eq i32 %52, 0
  br i1 %.not66, label %53, label %59

53:                                               ; preds = %51
  %54 = tail call i32 @cli_strbcasestr(ptr noundef nonnull %11, ptr noundef nonnull @.str.175) #25
  %.not67 = icmp eq i32 %54, 0
  br i1 %.not67, label %55, label %59

55:                                               ; preds = %53
  %56 = tail call i32 @cli_strbcasestr(ptr noundef nonnull %11, ptr noundef nonnull @.str.322) #25
  %.not68 = icmp eq i32 %56, 0
  br i1 %.not68, label %57, label %59

57:                                               ; preds = %55
  %58 = tail call i32 @cli_strbcasestr(ptr noundef nonnull %11, ptr noundef nonnull @.str.323) #25
  %.not69 = icmp eq i32 %58, 0
  br i1 %.not69, label %74, label %59

59:                                               ; preds = %57, %55, %53, %51, %49, %47, %45, %43, %41, %39, %37, %35, %33, %31, %29, %27, %25, %23, %21, %19, %17, %15
  %60 = tail call i64 @strlen(ptr noundef nonnull dereferenceable(1) %11) #31
  %61 = tail call i64 @strlen(ptr noundef nonnull dereferenceable(1) %1) #31
  %62 = add i64 %60, 2
  %63 = add i64 %62, %61
  %64 = tail call noalias ptr @malloc(i64 noundef %63) #30
  %.not70 = icmp eq ptr %64, null
  br i1 %.not70, label %65, label %67

65:                                               ; preds = %59
  tail call void (i32, ptr, ...) @mprintf(i32 noundef 5, ptr noundef nonnull @.str.324) #25
  %66 = tail call i32 @closedir(ptr noundef nonnull %4)
  br label %77

67:                                               ; preds = %59
  %68 = tail call i32 (ptr, ptr, ...) @sprintf(ptr noundef nonnull dereferenceable(1) %64, ptr noundef nonnull dereferenceable(1) @.str.269, ptr noundef %1, ptr noundef nonnull %11) #25
  %69 = tail call fastcc i32 @listdb(ptr noundef %0, ptr noundef nonnull %64, ptr noundef %2), !range !5
  %70 = icmp eq i32 %69, -1
  br i1 %70, label %71, label %73

71:                                               ; preds = %67
  tail call void (i32, ptr, ...) @mprintf(i32 noundef 5, ptr noundef nonnull @.str.325, ptr noundef nonnull %64) #25
  tail call void @free(ptr noundef nonnull %64) #25
  %72 = tail call i32 @closedir(ptr noundef nonnull %4)
  br label %77

73:                                               ; preds = %67
  tail call void @free(ptr noundef nonnull %64) #25
  br label %74

74:                                               ; preds = %10, %13, %57, %73, %.lr.ph
  %75 = tail call ptr @readdir(ptr noundef nonnull %4) #25
  %.not = icmp eq ptr %75, null
  br i1 %.not, label %._crit_edge, label %.lr.ph

._crit_edge:                                      ; preds = %74, %.preheader
  %76 = tail call i32 @closedir(ptr noundef nonnull %4)
  br label %77

77:                                               ; preds = %._crit_edge, %71, %65, %7
  %.0 = phi i32 [ -1, %7 ], [ -1, %71 ], [ -1, %65 ], [ 0, %._crit_edge ]
  ret i32 %.0
}